; Function Attrs: nounwind uwtable
define internal void @myinfocbfunc(i32 noundef %0, ptr readnone captures(none) %1, i64 %2, ptr noundef initializes((0, 4)) %3, ptr readnone captures(none) %4, ptr readnone captures(none) %5) #0 {
  store i32 %0, ptr %3, align 8, !tbaa !71
  %7 = getelementptr inbounds nuw i8, ptr %3, i64 128
  %8 = tail call i32 @pthread_mutex_lock(ptr noundef nonnull %7) #11
  %9 = getelementptr inbounds nuw i8, ptr %3, i64 216
  store volatile i8 0, ptr %9, align 8, !tbaa !23
  fence release
  %10 = getelementptr inbounds nuw i8, ptr %3, i64 168
  %11 = tail call i32 @pthread_cond_broadcast(ptr noundef nonnull %10) #11
  %12 = tail call i32 @pthread_mutex_unlock(ptr noundef nonnull %7) #11
  ret void
}